target datalayout = "e-m:e-p270:32:32-p271:32:32-p272:64:64-i64:64-i128:128-f80:128-n8:16:32:64-S128"
target triple = "x86_64-pc-linux-gnu"

@_ZN12_GLOBAL__N_116gEmptyUnicodeSetE = internal global [200 x i8] zeroinitializer, align 8
@_ZN12_GLOBAL__N_112gUnicodeSetsE = internal global [24 x ptr] zeroinitializer, align 16

; Function Attrs: inlinehint mustprogress nounwind uwtable
define internal noundef ptr @_ZN12_GLOBAL__N_17getImplEN6icu_777unisets3KeyE(i32 noundef %0) #3 {
  %2 = alloca ptr, align 8
  %3 = alloca i32, align 4
  %4 = alloca ptr, align 8
  %5 = alloca i32, align 4
  store i32 %0, ptr %3, align 4, !tbaa !3
  call void @llvm.lifetime.start.p0(i64 8, ptr %4) #11
  %6 = load i32, ptr %3, align 4, !tbaa !3
  %7 = sext i32 %6 to i64
  %8 = getelementptr inbounds [24 x ptr], ptr @_ZN12_GLOBAL__N_112gUnicodeSetsE, i64 0, i64 %7
  %9 = load ptr, ptr %8, align 8, !tbaa !19
  store ptr %9, ptr %4, align 8, !tbaa !19
  %10 = load ptr, ptr %4, align 8, !tbaa !19
  %11 = icmp eq ptr %10, null
  br i1 %11, label %12, label %13

12:                                               ; preds = %1
  store ptr @_ZN12_GLOBAL__N_116gEmptyUnicodeSetE, ptr %2, align 8
  store i32 1, ptr %5, align 4
  br label %15

13:                                               ; preds = %1
  %14 = load ptr, ptr %4, align 8, !tbaa !19
  store ptr %14, ptr %2, align 8
  store i32 1, ptr %5, align 4
  br label %15

15:                                               ; preds = %13, %12
  call void @llvm.lifetime.end.p0(i64 8, ptr %4) #11
  %16 = load ptr, ptr %2, align 8
  ret ptr %16
}

; Function Attrs: mustprogress uwtable
define internal noundef ptr @_ZN12_GLOBAL__N_112computeUnionEN6icu_777unisets3KeyES2_S2_(i32 noundef %0, i32 noundef %1, i32 noundef %2) #0 personality ptr @__gxx_personality_v0 {
  %4 = alloca ptr, align 8
  %5 = alloca i32, align 4
  %6 = alloca i32, align 4
  %7 = alloca i32, align 4
  %8 = alloca ptr, align 8
  %9 = alloca i1, align 1
  %10 = alloca ptr, align 8
  %11 = alloca i32, align 4
  %12 = alloca i32, align 4
  store i32 %0, ptr %5, align 4, !tbaa !3
  store i32 %1, ptr %6, align 4, !tbaa !3
  store i32 %2, ptr %7, align 4, !tbaa !3
  call void @llvm.lifetime.start.p0(i64 8, ptr %8) #11
  %13 = call noundef ptr @_ZN6icu_777UMemorynwEm(i64 noundef 200) #11
  %14 = icmp eq ptr %13, null
  store i1 false, ptr %9, align 1
  br i1 %14, label %17, label %15

15:                                               ; preds = %3
  store i1 true, ptr %9, align 1
  invoke void @_ZN6icu_7710UnicodeSetC1Ev(ptr noundef nonnull align 8 dereferenceable(200) %13)
          to label %16 unwind label %22

16:                                               ; preds = %15
  br label %17

17:                                               ; preds = %16, %3
  %18 = phi ptr [ %13, %16 ], [ null, %3 ]
  store ptr %18, ptr %8, align 8, !tbaa !19
  %19 = load ptr, ptr %8, align 8, !tbaa !19
  %20 = icmp eq ptr %19, null
  br i1 %20, label %21, label %29

21:                                               ; preds = %17
  store ptr null, ptr %4, align 8
  store i32 1, ptr %12, align 4
  br label %45

22:                                               ; preds = %15
  %23 = landingpad { ptr, i32 }
          cleanup
  %24 = extractvalue { ptr, i32 } %23, 0
  store ptr %24, ptr %10, align 8
  %25 = extractvalue { ptr, i32 } %23, 1
  store i32 %25, ptr %11, align 4
  %26 = load i1, ptr %9, align 1
  br i1 %26, label %27, label %28

27:                                               ; preds = %22
  call void @_ZN6icu_777UMemorydlEPv(ptr noundef %13) #11
  br label %28

28:                                               ; preds = %27, %22
  call void @llvm.lifetime.end.p0(i64 8, ptr %8) #11
  br label %47

29:                                               ; preds = %17
  %30 = load ptr, ptr %8, align 8, !tbaa !19
  %31 = load i32, ptr %5, align 4, !tbaa !3
  %32 = call noundef ptr @_ZN12_GLOBAL__N_17getImplEN6icu_777unisets3KeyE(i32 noundef %31)
  %33 = call noundef nonnull align 8 dereferenceable(200) ptr @_ZN6icu_7710UnicodeSet6addAllERKS0_(ptr noundef nonnull align 8 dereferenceable(200) %30, ptr noundef nonnull align 8 dereferenceable(200) %32)
  %34 = load ptr, ptr %8, align 8, !tbaa !19
  %35 = load i32, ptr %6, align 4, !tbaa !3
  %36 = call noundef ptr @_ZN12_GLOBAL__N_17getImplEN6icu_777unisets3KeyE(i32 noundef %35)
  %37 = call noundef nonnull align 8 dereferenceable(200) ptr @_ZN6icu_7710UnicodeSet6addAllERKS0_(ptr noundef nonnull align 8 dereferenceable(200) %34, ptr noundef nonnull align 8 dereferenceable(200) %36)
  %38 = load ptr, ptr %8, align 8, !tbaa !19
  %39 = load i32, ptr %7, align 4, !tbaa !3
  %40 = call noundef ptr @_ZN12_GLOBAL__N_17getImplEN6icu_777unisets3KeyE(i32 noundef %39)
  %41 = call noundef nonnull align 8 dereferenceable(200) ptr @_ZN6icu_7710UnicodeSet6addAllERKS0_(ptr noundef nonnull align 8 dereferenceable(200) %38, ptr noundef nonnull align 8 dereferenceable(200) %40)
  %42 = load ptr, ptr %8, align 8, !tbaa !19
  %43 = call noundef ptr @_ZN6icu_7710UnicodeSet6freezeEv(ptr noundef nonnull align 8 dereferenceable(200) %42)
  %44 = load ptr, ptr %8, align 8, !tbaa !19
  store ptr %44, ptr %4, align 8
  store i32 1, ptr %12, align 4
  br label %45

45:                                               ; preds = %29, %21
  call void @llvm.lifetime.end.p0(i64 8, ptr %8) #11
  %46 = load ptr, ptr %4, align 8
  ret ptr %46

47:                                               ; preds = %28
  %48 = load ptr, ptr %10, align 8
  %49 = load i32, ptr %11, align 4
  %50 = insertvalue { ptr, i32 } poison, ptr %48, 0
  %51 = insertvalue { ptr, i32 } %50, i32 %49, 1
  resume { ptr, i32 } %51
}