; Function Attrs: mustprogress uwtable
define internal fastcc noundef ptr @_ZN12_GLOBAL__N_112computeUnionEN6icu_777unisets3KeyES2_S2_(i32 noundef range(i32 3, 6) %0, i32 noundef range(i32 4, 7) %1) unnamed_addr #0 personality ptr @__gxx_personality_v0 {
  %3 = tail call noundef ptr @_ZN6icu_777UMemorynwEm(i64 noundef 200) #9
  %4 = icmp eq ptr %3, null
  br i1 %4, label %.thread, label %5

5:                                                ; preds = %2
  invoke void @_ZN6icu_7710UnicodeSetC1Ev(ptr noundef nonnull align 8 dereferenceable(200) %3)
          to label %8 unwind label %6

6:                                                ; preds = %5
  %7 = landingpad { ptr, i32 }
          cleanup
  tail call void @_ZN6icu_777UMemorydlEPv(ptr noundef nonnull %3) #9
  resume { ptr, i32 } %7

8:                                                ; preds = %5
  %9 = zext nneg i32 %0 to i64
  %10 = getelementptr inbounds nuw [24 x ptr], ptr @_ZN12_GLOBAL__N_112gUnicodeSetsE, i64 0, i64 %9
  %11 = load ptr, ptr %10, align 8, !tbaa !10
  %12 = icmp eq ptr %11, null
  %_ZN12_GLOBAL__N_116gEmptyUnicodeSetE..i = select i1 %12, ptr @_ZN12_GLOBAL__N_116gEmptyUnicodeSetE, ptr %11
  %13 = tail call noundef nonnull align 8 dereferenceable(200) ptr @_ZN6icu_7710UnicodeSet6addAllERKS0_(ptr noundef nonnull align 8 dereferenceable(200) %3, ptr noundef nonnull align 8 dereferenceable(200) %_ZN12_GLOBAL__N_116gEmptyUnicodeSetE..i)
  %14 = zext nneg i32 %1 to i64
  %15 = getelementptr inbounds nuw [24 x ptr], ptr @_ZN12_GLOBAL__N_112gUnicodeSetsE, i64 0, i64 %14
  %16 = load ptr, ptr %15, align 8, !tbaa !10
  %17 = icmp eq ptr %16, null
  %_ZN12_GLOBAL__N_116gEmptyUnicodeSetE..i14 = select i1 %17, ptr @_ZN12_GLOBAL__N_116gEmptyUnicodeSetE, ptr %16
  %18 = tail call noundef nonnull align 8 dereferenceable(200) ptr @_ZN6icu_7710UnicodeSet6addAllERKS0_(ptr noundef nonnull align 8 dereferenceable(200) %3, ptr noundef nonnull align 8 dereferenceable(200) %_ZN12_GLOBAL__N_116gEmptyUnicodeSetE..i14)
  %19 = load ptr, ptr getelementptr inbounds nuw (i8, ptr @_ZN12_GLOBAL__N_112gUnicodeSetsE, i64 64), align 16, !tbaa !10
  %20 = icmp eq ptr %19, null
  %_ZN12_GLOBAL__N_116gEmptyUnicodeSetE..i15 = select i1 %20, ptr @_ZN12_GLOBAL__N_116gEmptyUnicodeSetE, ptr %19
  %21 = tail call noundef nonnull align 8 dereferenceable(200) ptr @_ZN6icu_7710UnicodeSet6addAllERKS0_(ptr noundef nonnull align 8 dereferenceable(200) %3, ptr noundef nonnull align 8 dereferenceable(200) %_ZN12_GLOBAL__N_116gEmptyUnicodeSetE..i15)
  %22 = tail call noundef ptr @_ZN6icu_7710UnicodeSet6freezeEv(ptr noundef nonnull align 8 dereferenceable(200) %3)
  br label %.thread

.thread:                                          ; preds = %2, %8
  ret ptr %3
}